target datalayout = "e-m:e-p270:32:32-p271:32:32-p272:64:64-i64:64-i128:128-f80:128-n8:16:32:64-S128"
target triple = "x86_64-pc-linux-gnu"

%struct.CodedBitstreamType = type { i32, ptr, i64, ptr, ptr, ptr, ptr, ptr, ptr, ptr, ptr }
%struct.CodedBitstreamContext = type { ptr, ptr, ptr, ptr, i32, i32, i32, ptr, ptr, ptr, ptr, i64 }
%struct.CodedBitstreamFragment = type { ptr, i64, i64, ptr, i32, i32, ptr }
%struct.CodedBitstreamUnit = type { i32, ptr, i64, i64, ptr, ptr, ptr }
%struct.AVBufferRef = type { ptr, ptr, i64 }

@.str.1 = private unnamed_addr constant [30 x i8] c"Assertion %s failed at %s:%d\0A\00", align 1
@.str.2 = private unnamed_addr constant [29 x i8] c"unit->data && unit->data_ref\00", align 1
@.str.3 = private unnamed_addr constant [17 x i8] c"libavcodec/cbs.c\00", align 1
@.str.26 = private unnamed_addr constant [31 x i8] c"!frag->data && !frag->data_ref\00", align 1
@.str.27 = private unnamed_addr constant [52 x i8] c"Decomposition unimplemented for unit %d (type %u).\0A\00", align 1
@.str.28 = private unnamed_addr constant [46 x i8] c"Skipping decomposition of unit %d (type %u).\0A\00", align 1
@.str.29 = private unnamed_addr constant [35 x i8] c"Failed to read unit %d (type %u).\0A\00", align 1

; Function Attrs: nounwind uwtable
define internal i32 @cbs_read_fragment_content(ptr noundef %0, ptr noundef %1) #3 {
  %3 = alloca i32, align 4
  %4 = alloca ptr, align 8
  %5 = alloca ptr, align 8
  %6 = alloca i32, align 4
  %7 = alloca i32, align 4
  %8 = alloca i32, align 4
  %9 = alloca ptr, align 8
  %10 = alloca i32, align 4
  store ptr %0, ptr %4, align 8, !tbaa !22
  store ptr %1, ptr %5, align 8, !tbaa !39
  call void @llvm.lifetime.start.p0(i64 4, ptr %6) #13
  call void @llvm.lifetime.start.p0(i64 4, ptr %7) #13
  call void @llvm.lifetime.start.p0(i64 4, ptr %8) #13
  store i32 0, ptr %7, align 4, !tbaa !10
  br label %11

11:                                               ; preds = %130, %2
  %12 = load i32, ptr %7, align 4, !tbaa !10
  %13 = load ptr, ptr %5, align 8, !tbaa !39
  %14 = getelementptr inbounds nuw %struct.CodedBitstreamFragment, ptr %13, i32 0, i32 4
  %15 = load i32, ptr %14, align 8, !tbaa !41
  %16 = icmp slt i32 %12, %15
  br i1 %16, label %17, label %133

17:                                               ; preds = %11
  call void @llvm.lifetime.start.p0(i64 8, ptr %9) #13
  %18 = load ptr, ptr %5, align 8, !tbaa !39
  %19 = getelementptr inbounds nuw %struct.CodedBitstreamFragment, ptr %18, i32 0, i32 6
  %20 = load ptr, ptr %19, align 8, !tbaa !45
  %21 = load i32, ptr %7, align 4, !tbaa !10
  %22 = sext i32 %21 to i64
  %23 = getelementptr inbounds %struct.CodedBitstreamUnit, ptr %20, i64 %22
  store ptr %23, ptr %9, align 8, !tbaa !50
  %24 = load ptr, ptr %4, align 8, !tbaa !22
  %25 = getelementptr inbounds nuw %struct.CodedBitstreamContext, ptr %24, i32 0, i32 3
  %26 = load ptr, ptr %25, align 8, !tbaa !33
  %27 = icmp ne ptr %26, null
  br i1 %27, label %28, label %60

28:                                               ; preds = %17
  store i32 0, ptr %8, align 4, !tbaa !10
  br label %29

29:                                               ; preds = %49, %28
  %30 = load i32, ptr %8, align 4, !tbaa !10
  %31 = load ptr, ptr %4, align 8, !tbaa !22
  %32 = getelementptr inbounds nuw %struct.CodedBitstreamContext, ptr %31, i32 0, i32 4
  %33 = load i32, ptr %32, align 8, !tbaa !136
  %34 = icmp slt i32 %30, %33
  br i1 %34, label %35, label %52

35:                                               ; preds = %29
  %36 = load ptr, ptr %4, align 8, !tbaa !22
  %37 = getelementptr inbounds nuw %struct.CodedBitstreamContext, ptr %36, i32 0, i32 3
  %38 = load ptr, ptr %37, align 8, !tbaa !33
  %39 = load i32, ptr %8, align 4, !tbaa !10
  %40 = sext i32 %39 to i64
  %41 = getelementptr inbounds i32, ptr %38, i64 %40
  %42 = load i32, ptr %41, align 4, !tbaa !10
  %43 = load ptr, ptr %9, align 8, !tbaa !50
  %44 = getelementptr inbounds nuw %struct.CodedBitstreamUnit, ptr %43, i32 0, i32 0
  %45 = load i32, ptr %44, align 8, !tbaa !89
  %46 = icmp eq i32 %42, %45
  br i1 %46, label %47, label %48

47:                                               ; preds = %35
  br label %52

48:                                               ; preds = %35
  br label %49

49:                                               ; preds = %48
  %50 = load i32, ptr %8, align 4, !tbaa !10
  %51 = add nsw i32 %50, 1
  store i32 %51, ptr %8, align 4, !tbaa !10
  br label %29, !llvm.loop !137

52:                                               ; preds = %47, %29
  %53 = load i32, ptr %8, align 4, !tbaa !10
  %54 = load ptr, ptr %4, align 8, !tbaa !22
  %55 = getelementptr inbounds nuw %struct.CodedBitstreamContext, ptr %54, i32 0, i32 4
  %56 = load i32, ptr %55, align 8, !tbaa !136
  %57 = icmp sge i32 %53, %56
  br i1 %57, label %58, label %59

58:                                               ; preds = %52
  store i32 4, ptr %10, align 4
  br label %127

59:                                               ; preds = %52
  br label %60

60:                                               ; preds = %59, %17
  %61 = load ptr, ptr %9, align 8, !tbaa !50
  %62 = getelementptr inbounds nuw %struct.CodedBitstreamUnit, ptr %61, i32 0, i32 6
  call void @av_refstruct_unref(ptr noundef %62)
  %63 = load ptr, ptr %9, align 8, !tbaa !50
  %64 = getelementptr inbounds nuw %struct.CodedBitstreamUnit, ptr %63, i32 0, i32 5
  store ptr null, ptr %64, align 8, !tbaa !51
  br label %65

65:                                               ; preds = %60
  %66 = load ptr, ptr %9, align 8, !tbaa !50
  %67 = getelementptr inbounds nuw %struct.CodedBitstreamUnit, ptr %66, i32 0, i32 1
  %68 = load ptr, ptr %67, align 8, !tbaa !53
  %69 = icmp ne ptr %68, null
  br i1 %69, label %70, label %75

70:                                               ; preds = %65
  %71 = load ptr, ptr %9, align 8, !tbaa !50
  %72 = getelementptr inbounds nuw %struct.CodedBitstreamUnit, ptr %71, i32 0, i32 4
  %73 = load ptr, ptr %72, align 8, !tbaa !90
  %74 = icmp ne ptr %73, null
  br i1 %74, label %76, label %75

75:                                               ; preds = %70, %65
  call void (ptr, i32, ptr, ...) @av_log(ptr noundef null, i32 noundef 0, ptr noundef @.str.1, ptr noundef @.str.2, ptr noundef @.str.3, i32 noundef 219)
  call void @abort() #14
  unreachable

76:                                               ; preds = %70
  br label %77

77:                                               ; preds = %76
  br label %78

78:                                               ; preds = %77
  %79 = load ptr, ptr %4, align 8, !tbaa !22
  %80 = getelementptr inbounds nuw %struct.CodedBitstreamContext, ptr %79, i32 0, i32 1
  %81 = load ptr, ptr %80, align 8, !tbaa !28
  %82 = getelementptr inbounds nuw %struct.CodedBitstreamType, ptr %81, i32 0, i32 5
  %83 = load ptr, ptr %82, align 8, !tbaa !138
  %84 = load ptr, ptr %4, align 8, !tbaa !22
  %85 = load ptr, ptr %9, align 8, !tbaa !50
  %86 = call i32 %83(ptr noundef %84, ptr noundef %85)
  store i32 %86, ptr %6, align 4, !tbaa !10
  %87 = load i32, ptr %6, align 4, !tbaa !10
  %88 = icmp eq i32 %87, -38
  br i1 %88, label %89, label %97

89:                                               ; preds = %78
  %90 = load ptr, ptr %4, align 8, !tbaa !22
  %91 = getelementptr inbounds nuw %struct.CodedBitstreamContext, ptr %90, i32 0, i32 0
  %92 = load ptr, ptr %91, align 8, !tbaa !24
  %93 = load i32, ptr %7, align 4, !tbaa !10
  %94 = load ptr, ptr %9, align 8, !tbaa !50
  %95 = getelementptr inbounds nuw %struct.CodedBitstreamUnit, ptr %94, i32 0, i32 0
  %96 = load i32, ptr %95, align 8, !tbaa !89
  call void (ptr, i32, ptr, ...) @av_log(ptr noundef %92, i32 noundef 40, ptr noundef @.str.27, i32 noundef %93, i32 noundef %96)
  br label %126

97:                                               ; preds = %78
  %98 = load i32, ptr %6, align 4, !tbaa !10
  %99 = icmp eq i32 %98, -11
  br i1 %99, label %100, label %112

100:                                              ; preds = %97
  %101 = load ptr, ptr %4, align 8, !tbaa !22
  %102 = getelementptr inbounds nuw %struct.CodedBitstreamContext, ptr %101, i32 0, i32 0
  %103 = load ptr, ptr %102, align 8, !tbaa !24
  %104 = load i32, ptr %7, align 4, !tbaa !10
  %105 = load ptr, ptr %9, align 8, !tbaa !50
  %106 = getelementptr inbounds nuw %struct.CodedBitstreamUnit, ptr %105, i32 0, i32 0
  %107 = load i32, ptr %106, align 8, !tbaa !89
  call void (ptr, i32, ptr, ...) @av_log(ptr noundef %103, i32 noundef 40, ptr noundef @.str.28, i32 noundef %104, i32 noundef %107)
  %108 = load ptr, ptr %9, align 8, !tbaa !50
  %109 = getelementptr inbounds nuw %struct.CodedBitstreamUnit, ptr %108, i32 0, i32 6
  call void @av_refstruct_unref(ptr noundef %109)
  %110 = load ptr, ptr %9, align 8, !tbaa !50
  %111 = getelementptr inbounds nuw %struct.CodedBitstreamUnit, ptr %110, i32 0, i32 5
  store ptr null, ptr %111, align 8, !tbaa !51
  br label %125

112:                                              ; preds = %97
  %113 = load i32, ptr %6, align 4, !tbaa !10
  %114 = icmp slt i32 %113, 0
  br i1 %114, label %115, label %124

115:                                              ; preds = %112
  %116 = load ptr, ptr %4, align 8, !tbaa !22
  %117 = getelementptr inbounds nuw %struct.CodedBitstreamContext, ptr %116, i32 0, i32 0
  %118 = load ptr, ptr %117, align 8, !tbaa !24
  %119 = load i32, ptr %7, align 4, !tbaa !10
  %120 = load ptr, ptr %9, align 8, !tbaa !50
  %121 = getelementptr inbounds nuw %struct.CodedBitstreamUnit, ptr %120, i32 0, i32 0
  %122 = load i32, ptr %121, align 8, !tbaa !89
  call void (ptr, i32, ptr, ...) @av_log(ptr noundef %118, i32 noundef 16, ptr noundef @.str.29, i32 noundef %119, i32 noundef %122)
  %123 = load i32, ptr %6, align 4, !tbaa !10
  store i32 %123, ptr %3, align 4
  store i32 1, ptr %10, align 4
  br label %127

124:                                              ; preds = %112
  br label %125

125:                                              ; preds = %124, %100
  br label %126

126:                                              ; preds = %125, %89
  store i32 0, ptr %10, align 4
  br label %127

127:                                              ; preds = %126, %115, %58
  call void @llvm.lifetime.end.p0(i64 8, ptr %9) #13
  %128 = load i32, ptr %10, align 4
  switch i32 %128, label %134 [
    i32 0, label %129
    i32 4, label %130
  ]

129:                                              ; preds = %127
  br label %130

130:                                              ; preds = %129, %127
  %131 = load i32, ptr %7, align 4, !tbaa !10
  %132 = add nsw i32 %131, 1
  store i32 %132, ptr %7, align 4, !tbaa !10
  br label %11, !llvm.loop !139

133:                                              ; preds = %11
  store i32 0, ptr %3, align 4
  store i32 1, ptr %10, align 4
  br label %134

134:                                              ; preds = %133, %127
  call void @llvm.lifetime.end.p0(i64 4, ptr %8) #13
  call void @llvm.lifetime.end.p0(i64 4, ptr %7) #13
  call void @llvm.lifetime.end.p0(i64 4, ptr %6) #13
  %135 = load i32, ptr %3, align 4
  ret i32 %135
}

; Function Attrs: nounwind uwtable
define internal i32 @cbs_fill_fragment_data(ptr noundef %0, ptr noundef %1, i64 noundef %2) #3 {
  %4 = alloca i32, align 4
  %5 = alloca ptr, align 8
  %6 = alloca ptr, align 8
  %7 = alloca i64, align 8
  store ptr %0, ptr %5, align 8, !tbaa !39
  store ptr %1, ptr %6, align 8, !tbaa !66
  store i64 %2, ptr %7, align 8, !tbaa !67
  br label %8

8:                                                ; preds = %3
  %9 = load ptr, ptr %5, align 8, !tbaa !39
  %10 = getelementptr inbounds nuw %struct.CodedBitstreamFragment, ptr %9, i32 0, i32 0
  %11 = load ptr, ptr %10, align 8, !tbaa !47
  %12 = icmp ne ptr %11, null
  br i1 %12, label %18, label %13

13:                                               ; preds = %8
  %14 = load ptr, ptr %5, align 8, !tbaa !39
  %15 = getelementptr inbounds nuw %struct.CodedBitstreamFragment, ptr %14, i32 0, i32 3
  %16 = load ptr, ptr %15, align 8, !tbaa !68
  %17 = icmp ne ptr %16, null
  br i1 %17, label %18, label %19

18:                                               ; preds = %13, %8
  call void (ptr, i32, ptr, ...) @av_log(ptr noundef null, i32 noundef 0, ptr noundef @.str.1, ptr noundef @.str.26, ptr noundef @.str.3, i32 noundef 245)
  call void @abort() #14
  unreachable

19:                                               ; preds = %13
  br label %20

20:                                               ; preds = %19
  %21 = load i64, ptr %7, align 8, !tbaa !67
  %22 = add i64 %21, 64
  %23 = call ptr @av_buffer_alloc(i64 noundef %22)
  %24 = load ptr, ptr %5, align 8, !tbaa !39
  %25 = getelementptr inbounds nuw %struct.CodedBitstreamFragment, ptr %24, i32 0, i32 3
  store ptr %23, ptr %25, align 8, !tbaa !68
  %26 = load ptr, ptr %5, align 8, !tbaa !39
  %27 = getelementptr inbounds nuw %struct.CodedBitstreamFragment, ptr %26, i32 0, i32 3
  %28 = load ptr, ptr %27, align 8, !tbaa !68
  %29 = icmp ne ptr %28, null
  br i1 %29, label %31, label %30

30:                                               ; preds = %20
  store i32 -12, ptr %4, align 4
  br label %52

31:                                               ; preds = %20
  %32 = load ptr, ptr %5, align 8, !tbaa !39
  %33 = getelementptr inbounds nuw %struct.CodedBitstreamFragment, ptr %32, i32 0, i32 3
  %34 = load ptr, ptr %33, align 8, !tbaa !68
  %35 = getelementptr inbounds nuw %struct.AVBufferRef, ptr %34, i32 0, i32 1
  %36 = load ptr, ptr %35, align 8, !tbaa !133
  %37 = load ptr, ptr %5, align 8, !tbaa !39
  %38 = getelementptr inbounds nuw %struct.CodedBitstreamFragment, ptr %37, i32 0, i32 0
  store ptr %36, ptr %38, align 8, !tbaa !47
  %39 = load i64, ptr %7, align 8, !tbaa !67
  %40 = load ptr, ptr %5, align 8, !tbaa !39
  %41 = getelementptr inbounds nuw %struct.CodedBitstreamFragment, ptr %40, i32 0, i32 1
  store i64 %39, ptr %41, align 8, !tbaa !48
  %42 = load ptr, ptr %5, align 8, !tbaa !39
  %43 = getelementptr inbounds nuw %struct.CodedBitstreamFragment, ptr %42, i32 0, i32 0
  %44 = load ptr, ptr %43, align 8, !tbaa !47
  %45 = load ptr, ptr %6, align 8, !tbaa !66
  %46 = load i64, ptr %7, align 8, !tbaa !67
  call void @llvm.memcpy.p0.p0.i64(ptr align 1 %44, ptr align 1 %45, i64 %46, i1 false)
  %47 = load ptr, ptr %5, align 8, !tbaa !39
  %48 = getelementptr inbounds nuw %struct.CodedBitstreamFragment, ptr %47, i32 0, i32 0
  %49 = load ptr, ptr %48, align 8, !tbaa !47
  %50 = load i64, ptr %7, align 8, !tbaa !67
  %51 = getelementptr inbounds nuw i8, ptr %49, i64 %50
  call void @llvm.memset.p0.i64(ptr align 1 %51, i8 0, i64 64, i1 false)
  store i32 0, ptr %4, align 4
  br label %52

52:                                               ; preds = %31, %30
  %53 = load i32, ptr %4, align 4
  ret i32 %53
}

; Function Attrs: nounwind uwtable
define internal i32 @cbs_read_data(ptr noundef %0, ptr noundef %1, ptr noundef %2, ptr noundef %3, i64 noundef %4, i32 noundef %5) #3 {
  %7 = alloca i32, align 4
  %8 = alloca ptr, align 8
  %9 = alloca ptr, align 8
  %10 = alloca ptr, align 8
  %11 = alloca ptr, align 8
  %12 = alloca i64, align 8
  %13 = alloca i32, align 4
  %14 = alloca i32, align 4
  %15 = alloca i32, align 4
  store ptr %0, ptr %8, align 8, !tbaa !22
  store ptr %1, ptr %9, align 8, !tbaa !39
  store ptr %2, ptr %10, align 8, !tbaa !65
  store ptr %3, ptr %11, align 8, !tbaa !66
  store i64 %4, ptr %12, align 8, !tbaa !67
  store i32 %5, ptr %13, align 4, !tbaa !10
  call void @llvm.lifetime.start.p0(i64 4, ptr %14) #13
  %16 = load ptr, ptr %10, align 8, !tbaa !65
  %17 = icmp ne ptr %16, null
  br i1 %17, label %18, label %35

18:                                               ; preds = %6
  %19 = load ptr, ptr %10, align 8, !tbaa !65
  %20 = call ptr @av_buffer_ref(ptr noundef %19)
  %21 = load ptr, ptr %9, align 8, !tbaa !39
  %22 = getelementptr inbounds nuw %struct.CodedBitstreamFragment, ptr %21, i32 0, i32 3
  store ptr %20, ptr %22, align 8, !tbaa !68
  %23 = load ptr, ptr %9, align 8, !tbaa !39
  %24 = getelementptr inbounds nuw %struct.CodedBitstreamFragment, ptr %23, i32 0, i32 3
  %25 = load ptr, ptr %24, align 8, !tbaa !68
  %26 = icmp ne ptr %25, null
  br i1 %26, label %28, label %27

27:                                               ; preds = %18
  store i32 -12, ptr %7, align 4
  store i32 1, ptr %15, align 4
  br label %63

28:                                               ; preds = %18
  %29 = load ptr, ptr %11, align 8, !tbaa !66
  %30 = load ptr, ptr %9, align 8, !tbaa !39
  %31 = getelementptr inbounds nuw %struct.CodedBitstreamFragment, ptr %30, i32 0, i32 0
  store ptr %29, ptr %31, align 8, !tbaa !47
  %32 = load i64, ptr %12, align 8, !tbaa !67
  %33 = load ptr, ptr %9, align 8, !tbaa !39
  %34 = getelementptr inbounds nuw %struct.CodedBitstreamFragment, ptr %33, i32 0, i32 1
  store i64 %32, ptr %34, align 8, !tbaa !48
  br label %45

35:                                               ; preds = %6
  %36 = load ptr, ptr %9, align 8, !tbaa !39
  %37 = load ptr, ptr %11, align 8, !tbaa !66
  %38 = load i64, ptr %12, align 8, !tbaa !67
  %39 = call i32 @cbs_fill_fragment_data(ptr noundef %36, ptr noundef %37, i64 noundef %38)
  store i32 %39, ptr %14, align 4, !tbaa !10
  %40 = load i32, ptr %14, align 4, !tbaa !10
  %41 = icmp slt i32 %40, 0
  br i1 %41, label %42, label %44

42:                                               ; preds = %35
  %43 = load i32, ptr %14, align 4, !tbaa !10
  store i32 %43, ptr %7, align 4
  store i32 1, ptr %15, align 4
  br label %63

44:                                               ; preds = %35
  br label %45

45:                                               ; preds = %44, %28
  %46 = load ptr, ptr %8, align 8, !tbaa !22
  %47 = getelementptr inbounds nuw %struct.CodedBitstreamContext, ptr %46, i32 0, i32 1
  %48 = load ptr, ptr %47, align 8, !tbaa !28
  %49 = getelementptr inbounds nuw %struct.CodedBitstreamType, ptr %48, i32 0, i32 4
  %50 = load ptr, ptr %49, align 8, !tbaa !69
  %51 = load ptr, ptr %8, align 8, !tbaa !22
  %52 = load ptr, ptr %9, align 8, !tbaa !39
  %53 = load i32, ptr %13, align 4, !tbaa !10
  %54 = call i32 %50(ptr noundef %51, ptr noundef %52, i32 noundef %53)
  store i32 %54, ptr %14, align 4, !tbaa !10
  %55 = load i32, ptr %14, align 4, !tbaa !10
  %56 = icmp slt i32 %55, 0
  br i1 %56, label %57, label %59

57:                                               ; preds = %45
  %58 = load i32, ptr %14, align 4, !tbaa !10
  store i32 %58, ptr %7, align 4
  store i32 1, ptr %15, align 4
  br label %63

59:                                               ; preds = %45
  %60 = load ptr, ptr %8, align 8, !tbaa !22
  %61 = load ptr, ptr %9, align 8, !tbaa !39
  %62 = call i32 @cbs_read_fragment_content(ptr noundef %60, ptr noundef %61)
  store i32 %62, ptr %7, align 4
  store i32 1, ptr %15, align 4
  br label %63

63:                                               ; preds = %59, %57, %42, %27
  call void @llvm.lifetime.end.p0(i64 4, ptr %14) #13
  %64 = load i32, ptr %7, align 4
  ret i32 %64
}