; Function Attrs: nounwind uwtable
define internal fastcc range(i32 -2147483648, 1) i32 @cbs_read_data(ptr noundef %0, ptr noundef %1, ptr noundef %2, ptr noundef %3, i64 noundef %4, i32 noundef range(i32 0, 2) %5) unnamed_addr #3 {
  %.not = icmp eq ptr %2, null
  br i1 %.not, label %12, label %7

7:                                                ; preds = %6
  %8 = tail call ptr @av_buffer_ref(ptr noundef nonnull %2) #10
  %9 = getelementptr inbounds nuw i8, ptr %1, i64 24
  store ptr %8, ptr %9, align 8, !tbaa !49
  %.not24 = icmp eq ptr %8, null
  br i1 %.not24, label %cbs_read_fragment_content.exit, label %10

10:                                               ; preds = %7
  store ptr %3, ptr %1, align 8, !tbaa !50
  %11 = getelementptr inbounds nuw i8, ptr %1, i64 8
  store i64 %4, ptr %11, align 8, !tbaa !51
  br label %26

12:                                               ; preds = %6
  %13 = load ptr, ptr %1, align 8, !tbaa !50
  %.not.i = icmp eq ptr %13, null
  br i1 %.not.i, label %14, label %17

14:                                               ; preds = %12
  %15 = getelementptr inbounds nuw i8, ptr %1, i64 24
  %16 = load ptr, ptr %15, align 8, !tbaa !49
  %.not15.i = icmp eq ptr %16, null
  br i1 %.not15.i, label %18, label %17

17:                                               ; preds = %14, %12
  tail call void (ptr, i32, ptr, ...) @av_log(ptr noundef null, i32 noundef 0, ptr noundef nonnull @.str.1, ptr noundef nonnull @.str.26, ptr noundef nonnull @.str.3, i32 noundef 245) #10
  tail call void @abort() #11
  unreachable

18:                                               ; preds = %14
  %19 = add i64 %4, 64
  %20 = tail call ptr @av_buffer_alloc(i64 noundef %19) #10
  store ptr %20, ptr %15, align 8, !tbaa !49
  %.not16.i = icmp eq ptr %20, null
  br i1 %.not16.i, label %cbs_read_fragment_content.exit, label %cbs_fill_fragment_data.exit

cbs_fill_fragment_data.exit:                      ; preds = %18
  %21 = getelementptr inbounds nuw i8, ptr %20, i64 8
  %22 = load ptr, ptr %21, align 8, !tbaa !52
  store ptr %22, ptr %1, align 8, !tbaa !50
  %23 = getelementptr inbounds nuw i8, ptr %1, i64 8
  store i64 %4, ptr %23, align 8, !tbaa !51
  tail call void @llvm.memcpy.p0.p0.i64(ptr align 1 %22, ptr readonly align 1 %3, i64 %4, i1 false)
  %24 = load ptr, ptr %1, align 8, !tbaa !50
  %25 = getelementptr inbounds nuw i8, ptr %24, i64 %4
  tail call void @llvm.memset.p0.i64(ptr noundef nonnull align 1 dereferenceable(64) %25, i8 0, i64 64, i1 false)
  br label %26

26:                                               ; preds = %cbs_fill_fragment_data.exit, %10
  %27 = getelementptr inbounds nuw i8, ptr %0, i64 8
  %28 = load ptr, ptr %27, align 8, !tbaa !23
  %29 = getelementptr inbounds nuw i8, ptr %28, i64 32
  %30 = load ptr, ptr %29, align 8, !tbaa !55
  %31 = tail call i32 %30(ptr noundef %0, ptr noundef nonnull %1, i32 noundef %5) #10
  %32 = icmp slt i32 %31, 0
  br i1 %32, label %cbs_read_fragment_content.exit, label %33

33:                                               ; preds = %26
  %34 = getelementptr inbounds nuw i8, ptr %1, i64 32
  %35 = load i32, ptr %34, align 8, !tbaa !34
  %36 = icmp sgt i32 %35, 0
  br i1 %36, label %.lr.ph56.i, label %cbs_read_fragment_content.exit

.lr.ph56.i:                                       ; preds = %33
  %37 = getelementptr inbounds nuw i8, ptr %1, i64 40
  %38 = getelementptr inbounds nuw i8, ptr %0, i64 24
  %39 = getelementptr inbounds nuw i8, ptr %0, i64 32
  br label %40

40:                                               ; preds = %.loopexit.i, %.lr.ph56.i
  %indvars.iv63.i = phi i64 [ 0, %.lr.ph56.i ], [ %indvars.iv.next64.i, %.loopexit.i ]
  %41 = load ptr, ptr %37, align 8, !tbaa !38
  %42 = getelementptr inbounds nuw %struct.CodedBitstreamUnit, ptr %41, i64 %indvars.iv63.i
  %43 = load ptr, ptr %38, align 8, !tbaa !28
  %.not.i25 = icmp eq ptr %43, null
  br i1 %.not.i25, label %.thread.i, label %.preheader.i

.preheader.i:                                     ; preds = %40
  %44 = load i32, ptr %39, align 8, !tbaa !56
  %45 = icmp sgt i32 %44, 0
  br i1 %45, label %.lr.ph.i, label %.loopexit.i

.lr.ph.i:                                         ; preds = %.preheader.i
  %46 = load i32, ptr %42, align 8, !tbaa !57
  %wide.trip.count.i = zext nneg i32 %44 to i64
  br label %48

47:                                               ; preds = %48
  %indvars.iv.next.i = add nuw nsw i64 %indvars.iv.i, 1
  %exitcond.not.i = icmp eq i64 %indvars.iv.next.i, %wide.trip.count.i
  br i1 %exitcond.not.i, label %.loopexit.i, label %48, !llvm.loop !58

48:                                               ; preds = %47, %.lr.ph.i
  %indvars.iv.i = phi i64 [ 0, %.lr.ph.i ], [ %indvars.iv.next.i, %47 ]
  %49 = getelementptr inbounds nuw i32, ptr %43, i64 %indvars.iv.i
  %50 = load i32, ptr %49, align 4, !tbaa !59
  %51 = icmp eq i32 %50, %46
  br i1 %51, label %.thread.i, label %47

.thread.i:                                        ; preds = %48, %40
  %52 = getelementptr inbounds nuw i8, ptr %42, i64 48
  tail call void @av_refstruct_unref(ptr noundef nonnull %52) #10
  %53 = getelementptr inbounds nuw i8, ptr %42, i64 40
  store ptr null, ptr %53, align 8, !tbaa !39
  %54 = getelementptr inbounds nuw i8, ptr %42, i64 8
  %55 = load ptr, ptr %54, align 8, !tbaa !60
  %.not42.i = icmp eq ptr %55, null
  br i1 %.not42.i, label %59, label %56

56:                                               ; preds = %.thread.i
  %57 = getelementptr inbounds nuw i8, ptr %42, i64 32
  %58 = load ptr, ptr %57, align 8, !tbaa !61
  %.not43.i = icmp eq ptr %58, null
  br i1 %.not43.i, label %59, label %60

59:                                               ; preds = %56, %.thread.i
  tail call void (ptr, i32, ptr, ...) @av_log(ptr noundef null, i32 noundef 0, ptr noundef nonnull @.str.1, ptr noundef nonnull @.str.2, ptr noundef nonnull @.str.3, i32 noundef 219) #10
  tail call void @abort() #11
  unreachable

60:                                               ; preds = %56
  %61 = load ptr, ptr %27, align 8, !tbaa !23
  %62 = getelementptr inbounds nuw i8, ptr %61, i64 40
  %63 = load ptr, ptr %62, align 8, !tbaa !62
  %64 = tail call i32 %63(ptr noundef nonnull %0, ptr noundef nonnull %42) #10
  switch i32 %64, label %73 [
    i32 -38, label %65
    i32 -11, label %69
  ]

65:                                               ; preds = %60
  %66 = load ptr, ptr %0, align 8, !tbaa !19
  %67 = load i32, ptr %42, align 8, !tbaa !57
  %68 = trunc nuw nsw i64 %indvars.iv63.i to i32
  tail call void (ptr, i32, ptr, ...) @av_log(ptr noundef %66, i32 noundef 40, ptr noundef nonnull @.str.27, i32 noundef %68, i32 noundef %67) #10
  br label %.loopexit.i

69:                                               ; preds = %60
  %70 = load ptr, ptr %0, align 8, !tbaa !19
  %71 = load i32, ptr %42, align 8, !tbaa !57
  %72 = trunc nuw nsw i64 %indvars.iv63.i to i32
  tail call void (ptr, i32, ptr, ...) @av_log(ptr noundef %70, i32 noundef 40, ptr noundef nonnull @.str.28, i32 noundef %72, i32 noundef %71) #10
  tail call void @av_refstruct_unref(ptr noundef nonnull %52) #10
  store ptr null, ptr %53, align 8, !tbaa !39
  br label %.loopexit.i

73:                                               ; preds = %60
  %74 = icmp slt i32 %64, 0
  br i1 %74, label %75, label %.loopexit.i

75:                                               ; preds = %73
  %76 = trunc nuw nsw i64 %indvars.iv63.i to i32
  %77 = load ptr, ptr %0, align 8, !tbaa !19
  %78 = load i32, ptr %42, align 8, !tbaa !57
  tail call void (ptr, i32, ptr, ...) @av_log(ptr noundef %77, i32 noundef 16, ptr noundef nonnull @.str.29, i32 noundef %76, i32 noundef %78) #10
  br label %cbs_read_fragment_content.exit

.loopexit.i:                                      ; preds = %47, %73, %69, %65, %.preheader.i
  %indvars.iv.next64.i = add nuw nsw i64 %indvars.iv63.i, 1
  %79 = load i32, ptr %34, align 8, !tbaa !34
  %80 = sext i32 %79 to i64
  %81 = icmp slt i64 %indvars.iv.next64.i, %80
  br i1 %81, label %40, label %cbs_read_fragment_content.exit, !llvm.loop !63

cbs_read_fragment_content.exit:                   ; preds = %.loopexit.i, %18, %75, %33, %26, %7
  %.0 = phi i32 [ -12, %7 ], [ %31, %26 ], [ %64, %75 ], [ 0, %33 ], [ -12, %18 ], [ 0, %.loopexit.i ]
  ret i32 %.0
}